target datalayout = "e-m:e-p270:32:32-p271:32:32-p272:64:64-i64:64-i128:128-f80:128-n8:16:32:64-S128"
target triple = "x86_64-pc-linux-gnu"

; Function Attrs: mustprogress nounwind uwtable
define void @_Z5rtrimPc(ptr noundef %0) #1 {
  %2 = alloca ptr, align 8
  %3 = alloca i32, align 4
  store ptr %0, ptr %2, align 8, !tbaa !4
  %4 = load ptr, ptr %2, align 8, !tbaa !4
  %5 = icmp eq ptr null, %4
  br i1 %5, label %6, label %7

6:                                                ; preds = %1
  br label %43

7:                                                ; preds = %1
  call void @llvm.lifetime.start.p0(i64 4, ptr %3) #13
  %8 = load ptr, ptr %2, align 8, !tbaa !4
  %9 = call i64 @strlen(ptr noundef %8) #14
  %10 = sub i64 %9, 1
  %11 = trunc i64 %10 to i32
  store i32 %11, ptr %3, align 4, !tbaa !9
  br label %12

12:                                               ; preds = %35, %7
  %13 = load i32, ptr %3, align 4, !tbaa !9
  %14 = icmp sge i32 %13, 0
  br i1 %14, label %15, label %33

15:                                               ; preds = %12
  %16 = load ptr, ptr %2, align 8, !tbaa !4
  %17 = load i32, ptr %3, align 4, !tbaa !9
  %18 = sext i32 %17 to i64
  %19 = getelementptr inbounds i8, ptr %16, i64 %18
  %20 = load i8, ptr %19, align 1, !tbaa !11
  %21 = sext i8 %20 to i32
  %22 = icmp eq i32 %21, 32
  br i1 %22, label %31, label %23

23:                                               ; preds = %15
  %24 = load ptr, ptr %2, align 8, !tbaa !4
  %25 = load i32, ptr %3, align 4, !tbaa !9
  %26 = sext i32 %25 to i64
  %27 = getelementptr inbounds i8, ptr %24, i64 %26
  %28 = load i8, ptr %27, align 1, !tbaa !11
  %29 = sext i8 %28 to i32
  %30 = icmp eq i32 %29, 9
  br label %31

31:                                               ; preds = %23, %15
  %32 = phi i1 [ true, %15 ], [ %30, %23 ]
  br label %33

33:                                               ; preds = %31, %12
  %34 = phi i1 [ false, %12 ], [ %32, %31 ]
  br i1 %34, label %35, label %42

35:                                               ; preds = %33
  %36 = load ptr, ptr %2, align 8, !tbaa !4
  %37 = load i32, ptr %3, align 4, !tbaa !9
  %38 = sext i32 %37 to i64
  %39 = getelementptr inbounds i8, ptr %36, i64 %38
  store i8 0, ptr %39, align 1, !tbaa !11
  %40 = load i32, ptr %3, align 4, !tbaa !9
  %41 = add nsw i32 %40, -1
  store i32 %41, ptr %3, align 4, !tbaa !9
  br label %12, !llvm.loop !12

42:                                               ; preds = %33
  call void @llvm.lifetime.end.p0(i64 4, ptr %3) #13
  br label %43

43:                                               ; preds = %42, %6
  ret void
}