; Function Attrs: mustprogress nofree nounwind memory(argmem: readwrite) uwtable
define void @_Z5rtrimPc(ptr noundef %0) local_unnamed_addr #0 {
  %2 = icmp eq ptr %0, null
  br i1 %2, label %.critedge, label %3

3:                                                ; preds = %1
  %4 = tail call i64 @strlen(ptr noundef nonnull dereferenceable(1) %0) #24
  %5 = trunc i64 %4 to i32
  %.013 = add i32 %5, -1
  %6 = icmp sgt i32 %.013, -1
  br i1 %6, label %.lr.ph.preheader, label %.critedge

.lr.ph.preheader:                                 ; preds = %3
  %7 = zext nneg i32 %.013 to i64
  br label %.lr.ph

.lr.ph:                                           ; preds = %.lr.ph.preheader, %.critedge2
  %indvars.iv = phi i64 [ %7, %.lr.ph.preheader ], [ %indvars.iv.next, %.critedge2 ]
  %8 = getelementptr inbounds nuw i8, ptr %0, i64 %indvars.iv
  %9 = load i8, ptr %8, align 1, !tbaa !4
  switch i8 %9, label %.critedge [
    i8 32, label %.critedge2
    i8 9, label %.critedge2
  ]

.critedge2:                                       ; preds = %.lr.ph, %.lr.ph
  store i8 0, ptr %8, align 1, !tbaa !4
  %indvars.iv.next = add nsw i64 %indvars.iv, -1
  %10 = icmp sgt i64 %indvars.iv, 0
  br i1 %10, label %.lr.ph, label %.critedge, !llvm.loop !7

.critedge:                                        ; preds = %.lr.ph, %.critedge2, %3, %1
  ret void
}